target datalayout = "e-m:e-p270:32:32-p271:32:32-p272:64:64-i64:64-i128:128-f80:128-n8:16:32:64-S128"
target triple = "x86_64-pc-linux-gnu"

%struct.H5O_storage_chunk_t = type { i32, i64, ptr, %union.anon }
%union.anon = type { %struct.H5O_storage_chunk_btree_t }
%struct.H5O_storage_chunk_btree_t = type { i64, ptr }
%struct.H5O_layout_chunk_t = type { i32, i8, i32, [33 x i32], i32, i32, i64, i64, [33 x i64], [33 x i64], [33 x i64], [33 x i64], %union.anon.0 }
%union.anon.0 = type { %struct.H5O_layout_chunk_earray_t }
%struct.H5O_layout_chunk_earray_t = type { %struct.anon.1, i32, [33 x i32], [33 x i64], [33 x i64] }
%struct.anon.1 = type { i8, i8, i8, i8, i8 }
%struct.H5B_shared_t = type { ptr, i32, i64, i64, i64, i64, i64, ptr, ptr, ptr }

@H5D_init_g = external global i8, align 1
@H5_libterm_g = external global i8, align 1
@.str = private unnamed_addr constant [102 x i8] c"generated/home/dtcxzyw/WorkSpace/Projects/compilers/llvm-opt-benchmark/bench/hdf5/hdf5/src/H5Dbtree.c\00", align 1
@H5E_DATASET_g = external global i64, align 8
@__func__.H5D__btree_shared_create = private unnamed_addr constant [25 x i8] c"H5D__btree_shared_create\00", align 1
@H5E_NOSPACE_g = external global i64, align 8
@.str.18 = private unnamed_addr constant [48 x i8] c"memory allocation failed for shared B-tree info\00", align 1
@H5E_CANTALLOC_g = external global i64, align 8
@.str.19 = private unnamed_addr constant [28 x i8] c"can't allocate chunk layout\00", align 1
@.str.20 = private unnamed_addr constant [54 x i8] c"can't create ref-count wrapper for shared B-tree info\00", align 1
@H5_H5O_layout_chunk_t_reg_free_list = internal global { i8, [3 x i8], i32, i32, [4 x i8], ptr, i64, ptr } { i8 0, [3 x i8] zeroinitializer, i32 0, i32 0, [4 x i8] zeroinitializer, ptr @.str.21, i64 1896, ptr null }, align 8

; Function Attrs: nounwind uwtable
define internal i32 @H5D__btree_shared_create(ptr noundef %0, ptr noundef %1, ptr noundef %2) #0 {
  %4 = alloca ptr, align 8
  %5 = alloca ptr, align 8
  %6 = alloca ptr, align 8
  %7 = alloca ptr, align 8
  %8 = alloca ptr, align 8
  %9 = alloca i64, align 8
  %10 = alloca i32, align 4
  %11 = alloca i8, align 1
  store ptr %0, ptr %4, align 8, !tbaa !56
  store ptr %1, ptr %5, align 8, !tbaa !33
  store ptr %2, ptr %6, align 8, !tbaa !69
  call void @llvm.lifetime.start.p0(i64 8, ptr %7) #8
  call void @llvm.lifetime.start.p0(i64 8, ptr %8) #8
  store ptr null, ptr %8, align 8, !tbaa !69
  call void @llvm.lifetime.start.p0(i64 8, ptr %9) #8
  call void @llvm.lifetime.start.p0(i64 4, ptr %10) #8
  store i32 0, ptr %10, align 4, !tbaa !12
  call void @llvm.lifetime.start.p0(i64 1, ptr %11) #8
  store i8 0, ptr %11, align 1, !tbaa !14
  %12 = load i8, ptr @H5D_init_g, align 1, !tbaa !14, !range !16, !noundef !17
  %13 = trunc i8 %12 to i1
  br i1 %13, label %18, label %14

14:                                               ; preds = %3
  %15 = load i8, ptr @H5_libterm_g, align 1, !tbaa !14, !range !16, !noundef !17
  %16 = trunc i8 %15 to i1
  %17 = xor i1 %16, true
  br label %18

18:                                               ; preds = %14, %3
  %19 = phi i1 [ true, %3 ], [ %17, %14 ]
  %20 = xor i1 %19, true
  %21 = xor i1 %20, true
  %22 = zext i1 %21 to i32
  %23 = sext i32 %22 to i64
  %24 = call i64 @llvm.expect.i64(i64 %23, i64 1)
  %25 = icmp ne i64 %24, 0
  br i1 %25, label %26, label %121

26:                                               ; preds = %18
  %27 = load ptr, ptr %6, align 8, !tbaa !69
  %28 = getelementptr inbounds nuw %struct.H5O_layout_chunk_t, ptr %27, i32 0, i32 2
  %29 = load i32, ptr %28, align 8, !tbaa !60
  %30 = mul i32 %29, 8
  %31 = add i32 8, %30
  %32 = zext i32 %31 to i64
  store i64 %32, ptr %9, align 8, !tbaa !10
  %33 = load ptr, ptr %4, align 8, !tbaa !56
  %34 = load i64, ptr %9, align 8, !tbaa !10
  %35 = call ptr @H5B_shared_new(ptr noundef %33, ptr noundef @H5B_BTREE, i64 noundef %34)
  store ptr %35, ptr %7, align 8, !tbaa !70
  %36 = icmp eq ptr null, %35
  br i1 %36, label %37, label %56

37:                                               ; preds = %26
  br label %38

38:                                               ; preds = %37
  br label %39

39:                                               ; preds = %38
  br label %40

40:                                               ; preds = %39
  %41 = load i64, ptr @H5E_DATASET_g, align 8, !tbaa !10
  %42 = load i64, ptr @H5E_NOSPACE_g, align 8, !tbaa !10
  %43 = call i32 (ptr, ptr, i32, i64, i64, ptr, ...) @H5E_printf_stack(ptr noundef @.str, ptr noundef @__func__.H5D__btree_shared_create, i32 noundef 780, i64 noundef %41, i64 noundef %42, ptr noundef @.str.18)
  br label %44

44:                                               ; preds = %40
  br label %45

45:                                               ; preds = %44
  store i8 1, ptr %11, align 1, !tbaa !14
  %46 = load i8, ptr %11, align 1, !tbaa !14, !range !16, !noundef !17
  %47 = trunc i8 %46 to i1
  %48 = zext i1 %47 to i8
  store i8 %48, ptr %11, align 1, !tbaa !14
  br label %49

49:                                               ; preds = %45
  br label %50

50:                                               ; preds = %49
  br label %51

51:                                               ; preds = %50
  store i32 -1, ptr %10, align 4, !tbaa !12
  br label %110

52:                                               ; No predecessors!
  br label %53

53:                                               ; preds = %52
  br label %54

54:                                               ; preds = %53
  br label %55

55:                                               ; preds = %54
  br label %56

56:                                               ; preds = %55, %26
  %57 = call noalias ptr @H5FL_reg_malloc(ptr noundef @H5_H5O_layout_chunk_t_reg_free_list)
  store ptr %57, ptr %8, align 8, !tbaa !69
  %58 = icmp eq ptr null, %57
  br i1 %58, label %59, label %78

59:                                               ; preds = %56
  br label %60

60:                                               ; preds = %59
  br label %61

61:                                               ; preds = %60
  br label %62

62:                                               ; preds = %61
  %63 = load i64, ptr @H5E_DATASET_g, align 8, !tbaa !10
  %64 = load i64, ptr @H5E_CANTALLOC_g, align 8, !tbaa !10
  %65 = call i32 (ptr, ptr, i32, i64, i64, ptr, ...) @H5E_printf_stack(ptr noundef @.str, ptr noundef @__func__.H5D__btree_shared_create, i32 noundef 784, i64 noundef %63, i64 noundef %64, ptr noundef @.str.19)
  br label %66

66:                                               ; preds = %62
  br label %67

67:                                               ; preds = %66
  store i8 1, ptr %11, align 1, !tbaa !14
  %68 = load i8, ptr %11, align 1, !tbaa !14, !range !16, !noundef !17
  %69 = trunc i8 %68 to i1
  %70 = zext i1 %69 to i8
  store i8 %70, ptr %11, align 1, !tbaa !14
  br label %71

71:                                               ; preds = %67
  br label %72

72:                                               ; preds = %71
  br label %73

73:                                               ; preds = %72
  store i32 -1, ptr %10, align 4, !tbaa !12
  br label %110

74:                                               ; No predecessors!
  br label %75

75:                                               ; preds = %74
  br label %76

76:                                               ; preds = %75
  br label %77

77:                                               ; preds = %76
  br label %78

78:                                               ; preds = %77, %56
  %79 = load ptr, ptr %8, align 8, !tbaa !69
  %80 = load ptr, ptr %6, align 8, !tbaa !69
  call void @llvm.memcpy.p0.p0.i64(ptr align 8 %79, ptr align 8 %80, i64 1896, i1 false)
  %81 = load ptr, ptr %8, align 8, !tbaa !69
  %82 = load ptr, ptr %7, align 8, !tbaa !70
  %83 = getelementptr inbounds nuw %struct.H5B_shared_t, ptr %82, i32 0, i32 9
  store ptr %81, ptr %83, align 8, !tbaa !72
  %84 = load ptr, ptr %7, align 8, !tbaa !70
  %85 = call ptr @H5UC_create(ptr noundef %84, ptr noundef @H5D__btree_shared_free)
  %86 = load ptr, ptr %5, align 8, !tbaa !33
  %87 = getelementptr inbounds nuw %struct.H5O_storage_chunk_t, ptr %86, i32 0, i32 3
  %88 = getelementptr inbounds nuw %struct.H5O_storage_chunk_btree_t, ptr %87, i32 0, i32 1
  store ptr %85, ptr %88, align 8, !tbaa !24
  %89 = icmp eq ptr null, %85
  br i1 %89, label %90, label %109

90:                                               ; preds = %78
  br label %91

91:                                               ; preds = %90
  br label %92

92:                                               ; preds = %91
  br label %93

93:                                               ; preds = %92
  %94 = load i64, ptr @H5E_DATASET_g, align 8, !tbaa !10
  %95 = load i64, ptr @H5E_NOSPACE_g, align 8, !tbaa !10
  %96 = call i32 (ptr, ptr, i32, i64, i64, ptr, ...) @H5E_printf_stack(ptr noundef @.str, ptr noundef @__func__.H5D__btree_shared_create, i32 noundef 790, i64 noundef %94, i64 noundef %95, ptr noundef @.str.20)
  br label %97

97:                                               ; preds = %93
  br label %98

98:                                               ; preds = %97
  store i8 1, ptr %11, align 1, !tbaa !14
  %99 = load i8, ptr %11, align 1, !tbaa !14, !range !16, !noundef !17
  %100 = trunc i8 %99 to i1
  %101 = zext i1 %100 to i8
  store i8 %101, ptr %11, align 1, !tbaa !14
  br label %102

102:                                              ; preds = %98
  br label %103

103:                                              ; preds = %102
  br label %104

104:                                              ; preds = %103
  store i32 -1, ptr %10, align 4, !tbaa !12
  br label %110

105:                                              ; No predecessors!
  br label %106

106:                                              ; preds = %105
  br label %107

107:                                              ; preds = %106
  br label %108

108:                                              ; preds = %107
  br label %109

109:                                              ; preds = %108, %78
  br label %110

110:                                              ; preds = %109, %104, %73, %51
  %111 = load i32, ptr %10, align 4, !tbaa !12
  %112 = icmp slt i32 %111, 0
  br i1 %112, label %113, label %120

113:                                              ; preds = %110
  %114 = load ptr, ptr %8, align 8, !tbaa !69
  %115 = icmp ne ptr %114, null
  br i1 %115, label %116, label %119

116:                                              ; preds = %113
  %117 = load ptr, ptr %8, align 8, !tbaa !69
  %118 = call ptr @H5FL_reg_free(ptr noundef @H5_H5O_layout_chunk_t_reg_free_list, ptr noundef %117)
  store ptr %118, ptr %8, align 8, !tbaa !69
  br label %119

119:                                              ; preds = %116, %113
  br label %120

120:                                              ; preds = %119, %110
  br label %121

121:                                              ; preds = %120, %18
  %122 = load i32, ptr %10, align 4, !tbaa !12
  call void @llvm.lifetime.end.p0(i64 1, ptr %11) #8
  call void @llvm.lifetime.end.p0(i64 4, ptr %10) #8
  call void @llvm.lifetime.end.p0(i64 8, ptr %9) #8
  call void @llvm.lifetime.end.p0(i64 8, ptr %8) #8
  call void @llvm.lifetime.end.p0(i64 8, ptr %7) #8
  ret i32 %122
}