; Function Attrs: nounwind uwtable
define internal fastcc range(i32 -1, 1) i32 @H5D__btree_shared_create(ptr noundef %0, ptr noundef writeonly captures(none) %1, ptr noundef readonly captures(none) %2) unnamed_addr #0 {
  %4 = load i8, ptr @H5D_init_g, align 1, !tbaa !3, !range !7, !noundef !8
  %5 = trunc nuw i8 %4 to i1
  %6 = load i8, ptr @H5_libterm_g, align 1, !range !7
  %7 = trunc nuw i8 %6 to i1
  %8 = xor i1 %7, true
  %9 = select i1 %5, i1 true, i1 %8
  br i1 %9, label %10, label %.thread, !prof !9

10:                                               ; preds = %3
  %11 = getelementptr inbounds nuw i8, ptr %2, i64 8
  %12 = load i32, ptr %11, align 8, !tbaa !40
  %13 = shl i32 %12, 3
  %14 = add i32 %13, 8
  %15 = zext i32 %14 to i64
  %16 = tail call ptr @H5B_shared_new(ptr noundef %0, ptr noundef nonnull @H5B_BTREE, i64 noundef %15) #15
  %17 = icmp eq ptr %16, null
  br i1 %17, label %18, label %22

18:                                               ; preds = %10
  %19 = load i64, ptr @H5E_DATASET_g, align 8, !tbaa !20
  %20 = load i64, ptr @H5E_NOSPACE_g, align 8, !tbaa !20
  %21 = tail call i32 (ptr, ptr, i32, i64, i64, ptr, ...) @H5E_printf_stack(ptr noundef nonnull @.str, ptr noundef nonnull @__func__.H5D__btree_shared_create, i32 noundef 780, i64 noundef %19, i64 noundef %20, ptr noundef nonnull @.str.18) #15
  br label %.thread

22:                                               ; preds = %10
  %23 = tail call noalias ptr @H5FL_reg_malloc(ptr noundef nonnull @H5_H5O_layout_chunk_t_reg_free_list) #15
  %24 = icmp eq ptr %23, null
  br i1 %24, label %25, label %29

25:                                               ; preds = %22
  %26 = load i64, ptr @H5E_DATASET_g, align 8, !tbaa !20
  %27 = load i64, ptr @H5E_CANTALLOC_g, align 8, !tbaa !20
  %28 = tail call i32 (ptr, ptr, i32, i64, i64, ptr, ...) @H5E_printf_stack(ptr noundef nonnull @.str, ptr noundef nonnull @__func__.H5D__btree_shared_create, i32 noundef 784, i64 noundef %26, i64 noundef %27, ptr noundef nonnull @.str.19) #15
  br label %.thread

29:                                               ; preds = %22
  tail call void @llvm.memcpy.p0.p0.i64(ptr noundef nonnull align 8 dereferenceable(1896) %23, ptr noundef nonnull align 8 dereferenceable(1896) %2, i64 1896, i1 false)
  %30 = getelementptr inbounds nuw i8, ptr %16, i64 72
  store ptr %23, ptr %30, align 8, !tbaa !47
  %31 = tail call ptr @H5UC_create(ptr noundef nonnull %16, ptr noundef nonnull @H5D__btree_shared_free) #15
  %32 = getelementptr inbounds nuw i8, ptr %1, i64 32
  store ptr %31, ptr %32, align 8, !tbaa !17
  %33 = icmp eq ptr %31, null
  br i1 %33, label %34, label %.thread

34:                                               ; preds = %29
  %35 = load i64, ptr @H5E_DATASET_g, align 8, !tbaa !20
  %36 = load i64, ptr @H5E_NOSPACE_g, align 8, !tbaa !20
  %37 = tail call i32 (ptr, ptr, i32, i64, i64, ptr, ...) @H5E_printf_stack(ptr noundef nonnull @.str, ptr noundef nonnull @__func__.H5D__btree_shared_create, i32 noundef 790, i64 noundef %35, i64 noundef %36, ptr noundef nonnull @.str.20) #15
  %38 = tail call ptr @H5FL_reg_free(ptr noundef nonnull @H5_H5O_layout_chunk_t_reg_free_list, ptr noundef nonnull %23) #15
  br label %.thread

.thread:                                          ; preds = %25, %18, %29, %34, %3
  %.0 = phi i32 [ -1, %34 ], [ 0, %3 ], [ 0, %29 ], [ -1, %25 ], [ -1, %18 ]
  ret i32 %.0
}